target datalayout = "e-m:e-p270:32:32-p271:32:32-p272:64:64-i64:64-i128:128-f80:128-n8:16:32:64-S128"
target triple = "x86_64-pc-linux-gnu"

%struct.Map_NodeStruct_t_ = type { ptr, ptr, i32, i32, i32, i32, [3 x i32], [3 x float], float, ptr, ptr, ptr, ptr, [2 x %struct.Map_TimeStruct_t_], [2 x %struct.Map_TimeStruct_t_], [2 x ptr], ptr, ptr, ptr }
%struct.Map_TimeStruct_t_ = type { float, float, float }
%struct.Map_ManStruct_t_ = type { ptr, i32, ptr, i32, ptr, i32, i32, ptr, ptr, ptr, ptr, ptr, ptr, ptr, ptr, i32, i32, i32, i32, float, float, float, float, i32, i32, float, i32, i32, i32, i32, ptr, [6 x [2 x i32]], [10 x [32 x i32]], [32 x i32], [32 x i32], ptr, ptr, ptr, ptr, ptr, ptr, i32, i32, i32, i32, i32, i32, i64, i64, i64, i64, i64, i64, i64, i64, i64, i64, i64 }

; Function Attrs: nounwind uwtable
define i32 @Map_MappingGetMaxLevel(ptr noundef %0) #0 {
  %2 = alloca ptr, align 8
  %3 = alloca i32, align 4
  %4 = alloca i32, align 4
  store ptr %0, ptr %2, align 8, !tbaa !20
  call void @llvm.lifetime.start.p0(i64 4, ptr %3) #4
  call void @llvm.lifetime.start.p0(i64 4, ptr %4) #4
  store i32 0, ptr %3, align 4, !tbaa !10
  store i32 0, ptr %4, align 4, !tbaa !10
  br label %5

5:                                                ; preds = %47, %1
  %6 = load i32, ptr %4, align 4, !tbaa !10
  %7 = load ptr, ptr %2, align 8, !tbaa !20
  %8 = getelementptr inbounds nuw %struct.Map_ManStruct_t_, ptr %7, i32 0, i32 5
  %9 = load i32, ptr %8, align 8, !tbaa !21
  %10 = icmp slt i32 %6, %9
  br i1 %10, label %11, label %50

11:                                               ; preds = %5
  %12 = load i32, ptr %3, align 4, !tbaa !10
  %13 = load ptr, ptr %2, align 8, !tbaa !20
  %14 = getelementptr inbounds nuw %struct.Map_ManStruct_t_, ptr %13, i32 0, i32 4
  %15 = load ptr, ptr %14, align 8, !tbaa !32
  %16 = load i32, ptr %4, align 4, !tbaa !10
  %17 = sext i32 %16 to i64
  %18 = getelementptr inbounds ptr, ptr %15, i64 %17
  %19 = load ptr, ptr %18, align 8, !tbaa !3
  %20 = ptrtoint ptr %19 to i64
  %21 = and i64 %20, -2
  %22 = inttoptr i64 %21 to ptr
  %23 = getelementptr inbounds nuw %struct.Map_NodeStruct_t_, ptr %22, i32 0, i32 5
  %24 = load i32, ptr %23, align 4
  %25 = lshr i32 %24, 5
  %26 = and i32 %25, 65535
  %27 = icmp ugt i32 %12, %26
  br i1 %27, label %28, label %30

28:                                               ; preds = %11
  %29 = load i32, ptr %3, align 4, !tbaa !10
  br label %45

30:                                               ; preds = %11
  %31 = load ptr, ptr %2, align 8, !tbaa !20
  %32 = getelementptr inbounds nuw %struct.Map_ManStruct_t_, ptr %31, i32 0, i32 4
  %33 = load ptr, ptr %32, align 8, !tbaa !32
  %34 = load i32, ptr %4, align 4, !tbaa !10
  %35 = sext i32 %34 to i64
  %36 = getelementptr inbounds ptr, ptr %33, i64 %35
  %37 = load ptr, ptr %36, align 8, !tbaa !3
  %38 = ptrtoint ptr %37 to i64
  %39 = and i64 %38, -2
  %40 = inttoptr i64 %39 to ptr
  %41 = getelementptr inbounds nuw %struct.Map_NodeStruct_t_, ptr %40, i32 0, i32 5
  %42 = load i32, ptr %41, align 4
  %43 = lshr i32 %42, 5
  %44 = and i32 %43, 65535
  br label %45

45:                                               ; preds = %30, %28
  %46 = phi i32 [ %29, %28 ], [ %44, %30 ]
  store i32 %46, ptr %3, align 4, !tbaa !10
  br label %47

47:                                               ; preds = %45
  %48 = load i32, ptr %4, align 4, !tbaa !10
  %49 = add nsw i32 %48, 1
  store i32 %49, ptr %4, align 4, !tbaa !10
  br label %5, !llvm.loop !97

50:                                               ; preds = %5
  %51 = load i32, ptr %3, align 4, !tbaa !10
  call void @llvm.lifetime.end.p0(i64 4, ptr %4) #4
  call void @llvm.lifetime.end.p0(i64 4, ptr %3) #4
  ret i32 %51
}