; Function Attrs: nofree norecurse nosync nounwind memory(read, inaccessiblemem: none) uwtable
define range(i32 0, 65536) i32 @Map_MappingGetMaxLevel(ptr noundef readonly captures(none) %0) local_unnamed_addr #12 {
  %2 = getelementptr inbounds nuw i8, ptr %0, i64 40
  %3 = load i32, ptr %2, align 8, !tbaa !16
  %4 = icmp sgt i32 %3, 0
  br i1 %4, label %.lr.ph, label %._crit_edge

.lr.ph:                                           ; preds = %1
  %5 = getelementptr inbounds nuw i8, ptr %0, i64 32
  %6 = load ptr, ptr %5, align 8, !tbaa !30
  %wide.trip.count = zext nneg i32 %3 to i64
  br label %7

7:                                                ; preds = %.lr.ph, %7
  %indvars.iv = phi i64 [ 0, %.lr.ph ], [ %indvars.iv.next, %7 ]
  %.0911 = phi i32 [ 0, %.lr.ph ], [ %.09., %7 ]
  %8 = getelementptr inbounds nuw ptr, ptr %6, i64 %indvars.iv
  %9 = load ptr, ptr %8, align 8, !tbaa !31
  %10 = ptrtoint ptr %9 to i64
  %11 = and i64 %10, -2
  %12 = inttoptr i64 %11 to ptr
  %13 = getelementptr inbounds nuw i8, ptr %12, i64 28
  %14 = load i32, ptr %13, align 4
  %15 = lshr i32 %14, 5
  %16 = and i32 %15, 65535
  %.09. = tail call i32 @llvm.umax.i32(i32 %.0911, i32 %16)
  %indvars.iv.next = add nuw nsw i64 %indvars.iv, 1
  %exitcond.not = icmp eq i64 %indvars.iv.next, %wide.trip.count
  br i1 %exitcond.not, label %._crit_edge, label %7, !llvm.loop !88

._crit_edge:                                      ; preds = %7, %1
  %.09.lcssa = phi i32 [ 0, %1 ], [ %.09., %7 ]
  ret i32 %.09.lcssa
}